target datalayout = "e-m:e-p270:32:32-p271:32:32-p272:64:64-i64:64-i128:128-f80:128-n8:16:32:64-S128"
target triple = "x86_64-pc-linux-gnu"

@stderr = external global ptr, align 8
@.str = private unnamed_addr constant [15 x i8] c"out of memory\0A\00", align 1
@.str.10 = private unnamed_addr constant [1 x i8] zeroinitializer, align 1
@.str.19 = private unnamed_addr constant [2 x i8] c"\0A\00", align 1
@.str.22 = private unnamed_addr constant [11 x i8] c"%%s %%-%ds\00", align 1
@.str.23 = private unnamed_addr constant [8 x i8] c"%%s %%s\00", align 1
@.str.24 = private unnamed_addr constant [4 x i8] c"%s\0A\00", align 1
@.str.25 = private unnamed_addr constant [2 x i8] c"|\00", align 1
@.str.26 = private unnamed_addr constant [6 x i8] c"|\0A%s\0A\00", align 1

; Function Attrs: nounwind uwtable
define void @PQprintTuples(ptr noundef %0, ptr noundef %1, i32 noundef %2, i32 noundef %3, i32 noundef %4) #0 {
  %6 = alloca ptr, align 8
  %7 = alloca ptr, align 8
  %8 = alloca i32, align 4
  %9 = alloca i32, align 4
  %10 = alloca i32, align 4
  %11 = alloca i32, align 4
  %12 = alloca i32, align 4
  %13 = alloca i32, align 4
  %14 = alloca i32, align 4
  %15 = alloca [80 x i8], align 16
  %16 = alloca ptr, align 8
  %17 = alloca i32, align 4
  %18 = alloca i32, align 4
  %19 = alloca ptr, align 8
  store ptr %0, ptr %6, align 8
  store ptr %1, ptr %7, align 8
  store i32 %2, ptr %8, align 4
  store i32 %3, ptr %9, align 4
  store i32 %4, ptr %10, align 4
  call void @llvm.lifetime.start.p0(i64 4, ptr %11) #7
  call void @llvm.lifetime.start.p0(i64 4, ptr %12) #7
  call void @llvm.lifetime.start.p0(i64 4, ptr %13) #7
  call void @llvm.lifetime.start.p0(i64 4, ptr %14) #7
  call void @llvm.lifetime.start.p0(i64 80, ptr %15) #7
  call void @llvm.lifetime.start.p0(i64 8, ptr %16) #7
  store ptr null, ptr %16, align 8
  %20 = load ptr, ptr %6, align 8
  %21 = call i32 @PQnfields(ptr noundef %20)
  store i32 %21, ptr %11, align 4
  %22 = load ptr, ptr %6, align 8
  %23 = call i32 @PQntuples(ptr noundef %22)
  store i32 %23, ptr %12, align 4
  %24 = load i32, ptr %10, align 4
  %25 = icmp sgt i32 %24, 0
  br i1 %25, label %26, label %30

26:                                               ; preds = %5
  %27 = getelementptr inbounds [80 x i8], ptr %15, i64 0, i64 0
  %28 = load i32, ptr %10, align 4
  %29 = call i32 (ptr, ptr, ...) @pg_sprintf(ptr noundef %27, ptr noundef @.str.22, i32 noundef %28)
  br label %33

30:                                               ; preds = %5
  %31 = getelementptr inbounds [80 x i8], ptr %15, i64 0, i64 0
  %32 = call i32 (ptr, ptr, ...) @pg_sprintf(ptr noundef %31, ptr noundef @.str.23)
  br label %33

33:                                               ; preds = %30, %26
  %34 = load i32, ptr %11, align 4
  %35 = icmp sgt i32 %34, 0
  br i1 %35, label %36, label %157

36:                                               ; preds = %33
  %37 = load i32, ptr %9, align 4
  %38 = icmp ne i32 %37, 0
  br i1 %38, label %75, label %39

39:                                               ; preds = %36
  call void @llvm.lifetime.start.p0(i64 4, ptr %17) #7
  %40 = load i32, ptr %11, align 4
  %41 = mul i32 %40, 14
  store i32 %41, ptr %17, align 4
  %42 = load i32, ptr %17, align 4
  %43 = add i32 %42, 1
  %44 = sext i32 %43 to i64
  %45 = call noalias ptr @malloc(i64 noundef %44) #10
  store ptr %45, ptr %16, align 8
  %46 = load ptr, ptr %16, align 8
  %47 = icmp ne ptr %46, null
  br i1 %47, label %51, label %48

48:                                               ; preds = %39
  %49 = load ptr, ptr @stderr, align 8
  %50 = call i32 (ptr, ptr, ...) @pg_fprintf(ptr noundef %49, ptr noundef @.str)
  store i32 1, ptr %18, align 4
  br label %72

51:                                               ; preds = %39
  store i32 0, ptr %13, align 4
  br label %52

52:                                               ; preds = %61, %51
  %53 = load i32, ptr %13, align 4
  %54 = load i32, ptr %17, align 4
  %55 = icmp slt i32 %53, %54
  br i1 %55, label %56, label %64

56:                                               ; preds = %52
  %57 = load ptr, ptr %16, align 8
  %58 = load i32, ptr %13, align 4
  %59 = sext i32 %58 to i64
  %60 = getelementptr inbounds i8, ptr %57, i64 %59
  store i8 45, ptr %60, align 1
  br label %61

61:                                               ; preds = %56
  %62 = load i32, ptr %13, align 4
  %63 = add i32 %62, 1
  store i32 %63, ptr %13, align 4
  br label %52, !llvm.loop !29

64:                                               ; preds = %52
  %65 = load ptr, ptr %16, align 8
  %66 = load i32, ptr %17, align 4
  %67 = sext i32 %66 to i64
  %68 = getelementptr inbounds i8, ptr %65, i64 %67
  store i8 0, ptr %68, align 1
  %69 = load ptr, ptr %7, align 8
  %70 = load ptr, ptr %16, align 8
  %71 = call i32 (ptr, ptr, ...) @pg_fprintf(ptr noundef %69, ptr noundef @.str.24, ptr noundef %70)
  store i32 0, ptr %18, align 4
  br label %72

72:                                               ; preds = %64, %48
  call void @llvm.lifetime.end.p0(i64 4, ptr %17) #7
  %73 = load i32, ptr %18, align 4
  switch i32 %73, label %159 [
    i32 0, label %74
  ]

74:                                               ; preds = %72
  br label %75

75:                                               ; preds = %74, %36
  store i32 0, ptr %13, align 4
  br label %76

76:                                               ; preds = %94, %75
  %77 = load i32, ptr %13, align 4
  %78 = load i32, ptr %11, align 4
  %79 = icmp slt i32 %77, %78
  br i1 %79, label %80, label %97

80:                                               ; preds = %76
  %81 = load i32, ptr %8, align 4
  %82 = icmp ne i32 %81, 0
  br i1 %82, label %83, label %93

83:                                               ; preds = %80
  %84 = load ptr, ptr %7, align 8
  %85 = getelementptr inbounds [80 x i8], ptr %15, i64 0, i64 0
  %86 = load i32, ptr %9, align 4
  %87 = icmp ne i32 %86, 0
  %88 = select i1 %87, ptr @.str.10, ptr @.str.25
  %89 = load ptr, ptr %6, align 8
  %90 = load i32, ptr %13, align 4
  %91 = call ptr @PQfname(ptr noundef %89, i32 noundef %90)
  %92 = call i32 (ptr, ptr, ...) @pg_fprintf(ptr noundef %84, ptr noundef %85, ptr noundef %88, ptr noundef %91)
  br label %93

93:                                               ; preds = %83, %80
  br label %94

94:                                               ; preds = %93
  %95 = load i32, ptr %13, align 4
  %96 = add i32 %95, 1
  store i32 %96, ptr %13, align 4
  br label %76, !llvm.loop !30

97:                                               ; preds = %76
  %98 = load i32, ptr %8, align 4
  %99 = icmp ne i32 %98, 0
  br i1 %99, label %100, label %111

100:                                              ; preds = %97
  %101 = load i32, ptr %9, align 4
  %102 = icmp ne i32 %101, 0
  br i1 %102, label %103, label %106

103:                                              ; preds = %100
  %104 = load ptr, ptr %7, align 8
  %105 = call i32 (ptr, ptr, ...) @pg_fprintf(ptr noundef %104, ptr noundef @.str.19)
  br label %110

106:                                              ; preds = %100
  %107 = load ptr, ptr %7, align 8
  %108 = load ptr, ptr %16, align 8
  %109 = call i32 (ptr, ptr, ...) @pg_fprintf(ptr noundef %107, ptr noundef @.str.26, ptr noundef %108)
  br label %110

110:                                              ; preds = %106, %103
  br label %111

111:                                              ; preds = %110, %97
  store i32 0, ptr %13, align 4
  br label %112

112:                                              ; preds = %153, %111
  %113 = load i32, ptr %13, align 4
  %114 = load i32, ptr %12, align 4
  %115 = icmp slt i32 %113, %114
  br i1 %115, label %116, label %156

116:                                              ; preds = %112
  store i32 0, ptr %14, align 4
  br label %117

117:                                              ; preds = %139, %116
  %118 = load i32, ptr %14, align 4
  %119 = load i32, ptr %11, align 4
  %120 = icmp slt i32 %118, %119
  br i1 %120, label %121, label %142

121:                                              ; preds = %117
  call void @llvm.lifetime.start.p0(i64 8, ptr %19) #7
  %122 = load ptr, ptr %6, align 8
  %123 = load i32, ptr %13, align 4
  %124 = load i32, ptr %14, align 4
  %125 = call ptr @PQgetvalue(ptr noundef %122, i32 noundef %123, i32 noundef %124)
  store ptr %125, ptr %19, align 8
  %126 = load ptr, ptr %7, align 8
  %127 = getelementptr inbounds [80 x i8], ptr %15, i64 0, i64 0
  %128 = load i32, ptr %9, align 4
  %129 = icmp ne i32 %128, 0
  %130 = select i1 %129, ptr @.str.10, ptr @.str.25
  %131 = load ptr, ptr %19, align 8
  %132 = icmp ne ptr %131, null
  br i1 %132, label %133, label %135

133:                                              ; preds = %121
  %134 = load ptr, ptr %19, align 8
  br label %136

135:                                              ; preds = %121
  br label %136

136:                                              ; preds = %135, %133
  %137 = phi ptr [ %134, %133 ], [ @.str.10, %135 ]
  %138 = call i32 (ptr, ptr, ...) @pg_fprintf(ptr noundef %126, ptr noundef %127, ptr noundef %130, ptr noundef %137)
  call void @llvm.lifetime.end.p0(i64 8, ptr %19) #7
  br label %139

139:                                              ; preds = %136
  %140 = load i32, ptr %14, align 4
  %141 = add i32 %140, 1
  store i32 %141, ptr %14, align 4
  br label %117, !llvm.loop !31

142:                                              ; preds = %117
  %143 = load i32, ptr %9, align 4
  %144 = icmp ne i32 %143, 0
  br i1 %144, label %145, label %148

145:                                              ; preds = %142
  %146 = load ptr, ptr %7, align 8
  %147 = call i32 (ptr, ptr, ...) @pg_fprintf(ptr noundef %146, ptr noundef @.str.19)
  br label %152

148:                                              ; preds = %142
  %149 = load ptr, ptr %7, align 8
  %150 = load ptr, ptr %16, align 8
  %151 = call i32 (ptr, ptr, ...) @pg_fprintf(ptr noundef %149, ptr noundef @.str.26, ptr noundef %150)
  br label %152

152:                                              ; preds = %148, %145
  br label %153

153:                                              ; preds = %152
  %154 = load i32, ptr %13, align 4
  %155 = add i32 %154, 1
  store i32 %155, ptr %13, align 4
  br label %112, !llvm.loop !32

156:                                              ; preds = %112
  br label %157

157:                                              ; preds = %156, %33
  %158 = load ptr, ptr %16, align 8
  call void @free(ptr noundef %158) #7
  store i32 0, ptr %18, align 4
  br label %159

159:                                              ; preds = %157, %72
  call void @llvm.lifetime.end.p0(i64 8, ptr %16) #7
  call void @llvm.lifetime.end.p0(i64 80, ptr %15) #7
  call void @llvm.lifetime.end.p0(i64 4, ptr %14) #7
  call void @llvm.lifetime.end.p0(i64 4, ptr %13) #7
  call void @llvm.lifetime.end.p0(i64 4, ptr %12) #7
  call void @llvm.lifetime.end.p0(i64 4, ptr %11) #7
  %160 = load i32, ptr %18, align 4
  switch i32 %160, label %162 [
    i32 0, label %161
    i32 1, label %161
  ]

161:                                              ; preds = %159, %159
  ret void

162:                                              ; preds = %159
  unreachable
}