; Function Attrs: nounwind uwtable
define void @PQprintTuples(ptr noundef %0, ptr noundef %1, i32 noundef %2, i32 noundef %3, i32 noundef %4) local_unnamed_addr #0 {
  %6 = alloca [80 x i8], align 16
  call void @llvm.lifetime.start.p0(i64 80, ptr nonnull %6) #14
  %7 = tail call i32 @PQnfields(ptr noundef %0) #14
  %8 = tail call i32 @PQntuples(ptr noundef %0) #14
  %9 = icmp sgt i32 %4, 0
  br i1 %9, label %10, label %12

10:                                               ; preds = %5
  %11 = call i32 (ptr, ptr, ...) @pg_sprintf(ptr noundef nonnull %6, ptr noundef nonnull @.str.22, i32 noundef %4) #14
  br label %14

12:                                               ; preds = %5
  %13 = call i32 (ptr, ptr, ...) @pg_sprintf(ptr noundef nonnull %6, ptr noundef nonnull @.str.23) #14
  br label %14

14:                                               ; preds = %12, %10
  %15 = icmp sgt i32 %7, 0
  br i1 %15, label %16, label %.loopexit

16:                                               ; preds = %14
  %.not = icmp eq i32 %3, 0
  br i1 %.not, label %17, label %.lr.ph65

17:                                               ; preds = %16
  %18 = mul i32 %7, 14
  %19 = or disjoint i32 %18, 1
  %20 = sext i32 %19 to i64
  %21 = call noalias ptr @malloc(i64 noundef %20) #17
  %.not57.not = icmp eq ptr %21, null
  br i1 %.not57.not, label %.thread, label %.preheader61

.preheader61:                                     ; preds = %17
  %22 = icmp sgt i32 %18, 0
  br i1 %22, label %.lr.ph.preheader, label %._crit_edge

.lr.ph.preheader:                                 ; preds = %.preheader61
  %23 = zext nneg i32 %18 to i64
  call void @llvm.memset.p0.i64(ptr nonnull align 1 %21, i8 45, i64 %23, i1 false)
  br label %._crit_edge

.thread:                                          ; preds = %17
  %24 = load ptr, ptr @stderr, align 8
  %25 = call i32 (ptr, ptr, ...) @pg_fprintf(ptr noundef %24, ptr noundef nonnull @.str) #14
  br label %50

._crit_edge:                                      ; preds = %.lr.ph.preheader, %.preheader61
  %26 = sext i32 %18 to i64
  %27 = getelementptr inbounds i8, ptr %21, i64 %26
  store i8 0, ptr %27, align 1
  %28 = call i32 (ptr, ptr, ...) @pg_fprintf(ptr noundef %1, ptr noundef nonnull @.str.24, ptr noundef nonnull %21) #14
  br label %.lr.ph65

.lr.ph65:                                         ; preds = %16, %._crit_edge
  %29 = phi ptr [ @.str.10, %16 ], [ @.str.25, %._crit_edge ]
  %.152 = phi ptr [ null, %16 ], [ %21, %._crit_edge ]
  %.not60 = icmp eq i32 %2, 0
  br i1 %.not60, label %._crit_edge66.thread, label %.lr.ph65.split

.lr.ph65.split:                                   ; preds = %.lr.ph65, %.lr.ph65.split
  %.163 = phi i32 [ %32, %.lr.ph65.split ], [ 0, %.lr.ph65 ]
  %30 = call ptr @PQfname(ptr noundef %0, i32 noundef %.163) #14
  %31 = call i32 (ptr, ptr, ...) @pg_fprintf(ptr noundef %1, ptr noundef nonnull %6, ptr noundef nonnull %29, ptr noundef %30) #14
  %32 = add nuw nsw i32 %.163, 1
  %exitcond.not = icmp eq i32 %32, %7
  br i1 %exitcond.not, label %._crit_edge66, label %.lr.ph65.split, !llvm.loop !27

._crit_edge66:                                    ; preds = %.lr.ph65.split
  br i1 %.not, label %35, label %33

33:                                               ; preds = %._crit_edge66
  %34 = call i32 (ptr, ptr, ...) @pg_fprintf(ptr noundef %1, ptr noundef nonnull @.str.19) #14
  br label %._crit_edge66.thread

35:                                               ; preds = %._crit_edge66
  %36 = call i32 (ptr, ptr, ...) @pg_fprintf(ptr noundef %1, ptr noundef nonnull @.str.26, ptr noundef %.152) #14
  br label %._crit_edge66.thread

._crit_edge66.thread:                             ; preds = %.lr.ph65, %33, %35
  %37 = icmp sgt i32 %8, 0
  br i1 %37, label %.preheader.us.preheader, label %.loopexit

.preheader.us.preheader:                          ; preds = %._crit_edge66.thread
  %38 = select i1 %.not, ptr @.str.25, ptr @.str.10
  %smax77 = call i32 @llvm.smax.i32(i32 %7, i32 1)
  br label %.preheader.us

.preheader.us:                                    ; preds = %.preheader.us.preheader, %43
  %.270.us = phi i32 [ %44, %43 ], [ 0, %.preheader.us.preheader ]
  br label %45

39:                                               ; preds = %._crit_edge69.us
  %40 = call i32 (ptr, ptr, ...) @pg_fprintf(ptr noundef %1, ptr noundef nonnull @.str.19) #14
  br label %43

41:                                               ; preds = %._crit_edge69.us
  %42 = call i32 (ptr, ptr, ...) @pg_fprintf(ptr noundef %1, ptr noundef nonnull @.str.26, ptr noundef %.152) #14
  br label %43

43:                                               ; preds = %41, %39
  %44 = add nuw nsw i32 %.270.us, 1
  %exitcond79.not = icmp eq i32 %44, %8
  br i1 %exitcond79.not, label %.loopexit, label %.preheader.us, !llvm.loop !28

45:                                               ; preds = %.preheader.us, %45
  %.05067.us = phi i32 [ 0, %.preheader.us ], [ %49, %45 ]
  %46 = call ptr @PQgetvalue(ptr noundef %0, i32 noundef %.270.us, i32 noundef %.05067.us) #14
  %.not59.us = icmp eq ptr %46, null
  %47 = select i1 %.not59.us, ptr @.str.10, ptr %46
  %48 = call i32 (ptr, ptr, ...) @pg_fprintf(ptr noundef %1, ptr noundef nonnull %6, ptr noundef nonnull %38, ptr noundef nonnull %47) #14
  %49 = add nuw nsw i32 %.05067.us, 1
  %exitcond78.not = icmp eq i32 %49, %smax77
  br i1 %exitcond78.not, label %._crit_edge69.us, label %45, !llvm.loop !29

._crit_edge69.us:                                 ; preds = %45
  br i1 %.not, label %41, label %39

.loopexit:                                        ; preds = %43, %._crit_edge66.thread, %14
  %.051 = phi ptr [ null, %14 ], [ %.152, %._crit_edge66.thread ], [ %.152, %43 ]
  call void @free(ptr noundef %.051) #14
  br label %50

50:                                               ; preds = %.thread, %.loopexit
  call void @llvm.lifetime.end.p0(i64 80, ptr nonnull %6) #14
  ret void
}